; Function Attrs: mustprogress uwtable
define hidden void @_ZN12der_rewriter5resetEv(ptr nocapture noundef nonnull readonly align 8 dereferenceable(8) %this) local_unnamed_addr #3 align 2 {
entry:
  %0 = load ptr, ptr %this, align 8
  tail call void @_ZN13rewriter_core5resetEv(ptr noundef nonnull align 8 dereferenceable(144) %0)
  %m_bindings.i = getelementptr inbounds i8, ptr %0, i64 160
  %1 = load ptr, ptr %m_bindings.i, align 8
  %tobool.not.i.i = icmp eq ptr %1, null
  br i1 %tobool.not.i.i, label %_ZN6vectorIP4exprLb0EjE5resetEv.exit.i, label %if.then.i.i

if.then.i.i:                                      ; preds = %entry
  %arrayidx.i.i = getelementptr inbounds i8, ptr %1, i64 -4
  store i32 0, ptr %arrayidx.i.i, align 4
  br label %_ZN6vectorIP4exprLb0EjE5resetEv.exit.i

_ZN6vectorIP4exprLb0EjE5resetEv.exit.i:           ; preds = %if.then.i.i, %entry
  %m_shifts.i = getelementptr inbounds i8, ptr %0, i64 528
  %2 = load ptr, ptr %m_shifts.i, align 8
  %tobool.not.i1.i = icmp eq ptr %2, null
  br i1 %tobool.not.i1.i, label %_ZN12rewriter_tplI16der_rewriter_cfgE5resetEv.exit, label %if.then.i2.i

if.then.i2.i:                                     ; preds = %_ZN6vectorIP4exprLb0EjE5resetEv.exit.i
  %arrayidx.i3.i = getelementptr inbounds i8, ptr %2, i64 -4
  store i32 0, ptr %arrayidx.i3.i, align 4
  br label %_ZN12rewriter_tplI16der_rewriter_cfgE5resetEv.exit

_ZN12rewriter_tplI16der_rewriter_cfgE5resetEv.exit: ; preds = %_ZN6vectorIP4exprLb0EjE5resetEv.exit.i, %if.then.i2.i
  %m_shifter.i = getelementptr inbounds i8, ptr %0, i64 168
  tail call void @_ZN13rewriter_core5resetEv(ptr noundef nonnull align 8 dereferenceable(144) %m_shifter.i)
  %m_inv_shifter.i = getelementptr inbounds i8, ptr %0, i64 328
  tail call void @_ZN13rewriter_core5resetEv(ptr noundef nonnull align 8 dereferenceable(144) %m_inv_shifter.i)
  ret void
}